target datalayout = "e-m:e-p270:32:32-p271:32:32-p272:64:64-i64:64-i128:128-f80:128-n8:16:32:64-S128"
target triple = "x86_64-pc-linux-gnu"

%"class.icu_77::UCharsTrie::Iterator" = type { ptr, ptr, ptr, i32, i32, i8, %"class.icu_77::UnicodeString", i32, i32, ptr }
%"class.icu_77::UnicodeString" = type { %"class.icu_77::Replaceable", %"union.icu_77::UnicodeString::StackBufferOrFields" }
%"class.icu_77::Replaceable" = type { %"class.icu_77::UObject" }
%"class.icu_77::UObject" = type { ptr }
%"union.icu_77::UnicodeString::StackBufferOrFields" = type { %struct.anon.0, [32 x i8] }
%struct.anon.0 = type { i16, i32, i32, ptr }
%"class.icu_77::UVector32" = type { %"class.icu_77::UObject", i32, i32, i32, ptr }

; Function Attrs: inlinehint mustprogress nounwind uwtable
define linkonce_odr noundef signext i8 @_ZNK6icu_779UVector327isEmptyEv(ptr noundef nonnull align 8 dereferenceable(32) %0) #2 comdat align 2 {
  %2 = alloca ptr, align 8
  store ptr %0, ptr %2, align 8, !tbaa !45
  %3 = load ptr, ptr %2, align 8
  %4 = getelementptr inbounds nuw %"class.icu_77::UVector32", ptr %3, i32 0, i32 1
  %5 = load i32, ptr %4, align 8, !tbaa !46
  %6 = icmp eq i32 %5, 0
  %7 = zext i1 %6 to i8
  ret i8 %7
}

; Function Attrs: mustprogress uwtable
define noundef signext i8 @_ZNK6icu_7710UCharsTrie8Iterator7hasNextEv(ptr noundef nonnull align 8 dereferenceable(120) %0) #0 align 2 {
  %2 = alloca ptr, align 8
  store ptr %0, ptr %2, align 8, !tbaa !3
  %3 = load ptr, ptr %2, align 8
  %4 = getelementptr inbounds nuw %"class.icu_77::UCharsTrie::Iterator", ptr %3, i32 0, i32 1
  %5 = load ptr, ptr %4, align 8, !tbaa !20
  %6 = icmp ne ptr %5, null
  br i1 %6, label %13, label %7

7:                                                ; preds = %1
  %8 = getelementptr inbounds nuw %"class.icu_77::UCharsTrie::Iterator", ptr %3, i32 0, i32 9
  %9 = load ptr, ptr %8, align 8, !tbaa !27
  %10 = call noundef signext i8 @_ZNK6icu_779UVector327isEmptyEv(ptr noundef nonnull align 8 dereferenceable(32) %9)
  %11 = icmp ne i8 %10, 0
  %12 = xor i1 %11, true
  br label %13

13:                                               ; preds = %7, %1
  %14 = phi i1 [ true, %1 ], [ %12, %7 ]
  %15 = zext i1 %14 to i8
  ret i8 %15
}