; Function Attrs: mustprogress nofree norecurse nosync nounwind willreturn memory(read, inaccessiblemem: none) uwtable
define noundef signext range(i8 0, 2) i8 @_ZNK6icu_7710UCharsTrie8Iterator7hasNextEv(ptr noundef nonnull readonly align 8 captures(none) dereferenceable(120) %0) local_unnamed_addr #4 align 2 {
  %2 = getelementptr inbounds nuw i8, ptr %0, i64 8
  %3 = load ptr, ptr %2, align 8, !tbaa !16
  %.not = icmp eq ptr %3, null
  br i1 %.not, label %4, label %11

4:                                                ; preds = %1
  %5 = getelementptr inbounds nuw i8, ptr %0, i64 112
  %6 = load ptr, ptr %5, align 8, !tbaa !26
  %7 = getelementptr inbounds nuw i8, ptr %6, i64 8
  %8 = load i32, ptr %7, align 8, !tbaa !34
  %9 = icmp ne i32 %8, 0
  %10 = zext i1 %9 to i8
  br label %11

11:                                               ; preds = %4, %1
  %12 = phi i8 [ 1, %1 ], [ %10, %4 ]
  ret i8 %12
}